target datalayout = "e-m:e-p270:32:32-p271:32:32-p272:64:64-i64:64-i128:128-f80:128-n8:16:32:64-S128"
target triple = "x86_64-pc-linux-gnu"

%struct.SUNHashMap_ = type { i32, i32, ptr }
%struct.SUNHashMapKeyValue_ = type { ptr, ptr }

; Function Attrs: nounwind uwtable
define i32 @SUNHashMap_Iterate(ptr noundef %0, i32 noundef %1, ptr noundef %2, ptr noundef %3) #0 {
  %5 = alloca i32, align 4
  %6 = alloca ptr, align 8
  %7 = alloca i32, align 4
  %8 = alloca ptr, align 8
  %9 = alloca ptr, align 8
  %10 = alloca i32, align 4
  %11 = alloca i32, align 4
  %12 = alloca i32, align 4
  store ptr %0, ptr %6, align 8, !tbaa !10
  store i32 %1, ptr %7, align 4, !tbaa !3
  store ptr %2, ptr %8, align 8, !tbaa !19
  store ptr %3, ptr %9, align 8, !tbaa !19
  call void @llvm.lifetime.start.p0(i64 4, ptr %10) #6
  %13 = load ptr, ptr %6, align 8, !tbaa !10
  %14 = icmp eq ptr %13, null
  br i1 %14, label %18, label %15

15:                                               ; preds = %4
  %16 = load ptr, ptr %8, align 8, !tbaa !19
  %17 = icmp eq ptr %16, null
  br i1 %17, label %18, label %19

18:                                               ; preds = %15, %4
  store i32 -2, ptr %5, align 4
  store i32 1, ptr %11, align 4
  br label %59

19:                                               ; preds = %15
  %20 = load i32, ptr %7, align 4, !tbaa !3
  store i32 %20, ptr %10, align 4, !tbaa !3
  br label %21

21:                                               ; preds = %52, %19
  %22 = load i32, ptr %10, align 4, !tbaa !3
  %23 = load ptr, ptr %6, align 8, !tbaa !10
  %24 = getelementptr inbounds nuw %struct.SUNHashMap_, ptr %23, i32 0, i32 1
  %25 = load i32, ptr %24, align 4, !tbaa !15
  %26 = icmp slt i32 %22, %25
  br i1 %26, label %27, label %55

27:                                               ; preds = %21
  call void @llvm.lifetime.start.p0(i64 4, ptr %12) #6
  %28 = load ptr, ptr %8, align 8, !tbaa !19
  %29 = load i32, ptr %10, align 4, !tbaa !3
  %30 = load ptr, ptr %6, align 8, !tbaa !10
  %31 = getelementptr inbounds nuw %struct.SUNHashMap_, ptr %30, i32 0, i32 2
  %32 = load ptr, ptr %31, align 8, !tbaa !16
  %33 = load i32, ptr %10, align 4, !tbaa !3
  %34 = sext i32 %33 to i64
  %35 = getelementptr inbounds ptr, ptr %32, i64 %34
  %36 = load ptr, ptr %35, align 8, !tbaa !17
  %37 = load ptr, ptr %9, align 8, !tbaa !19
  %38 = call i32 %28(i32 noundef %29, ptr noundef %36, ptr noundef %37)
  store i32 %38, ptr %12, align 4, !tbaa !3
  %39 = load i32, ptr %12, align 4, !tbaa !3
  %40 = icmp sge i32 %39, 0
  br i1 %40, label %41, label %43

41:                                               ; preds = %27
  %42 = load i32, ptr %12, align 4, !tbaa !3
  store i32 %42, ptr %5, align 4
  store i32 1, ptr %11, align 4
  br label %49

43:                                               ; preds = %27
  %44 = load i32, ptr %12, align 4, !tbaa !3
  %45 = icmp slt i32 %44, -1
  br i1 %45, label %46, label %48

46:                                               ; preds = %43
  %47 = load i32, ptr %12, align 4, !tbaa !3
  store i32 %47, ptr %5, align 4
  store i32 1, ptr %11, align 4
  br label %49

48:                                               ; preds = %43
  store i32 0, ptr %11, align 4
  br label %49

49:                                               ; preds = %48, %46, %41
  call void @llvm.lifetime.end.p0(i64 4, ptr %12) #6
  %50 = load i32, ptr %11, align 4
  switch i32 %50, label %59 [
    i32 0, label %51
  ]

51:                                               ; preds = %49
  br label %52

52:                                               ; preds = %51
  %53 = load i32, ptr %10, align 4, !tbaa !3
  %54 = add nsw i32 %53, 1
  store i32 %54, ptr %10, align 4, !tbaa !3
  br label %21

55:                                               ; preds = %21
  %56 = load ptr, ptr %6, align 8, !tbaa !10
  %57 = getelementptr inbounds nuw %struct.SUNHashMap_, ptr %56, i32 0, i32 1
  %58 = load i32, ptr %57, align 4, !tbaa !15
  store i32 %58, ptr %5, align 4
  store i32 1, ptr %11, align 4
  br label %59

59:                                               ; preds = %55, %49, %18
  call void @llvm.lifetime.end.p0(i64 4, ptr %10) #6
  %60 = load i32, ptr %5, align 4
  ret i32 %60
}

; Function Attrs: nounwind uwtable
define internal i64 @fnv1a_hash(ptr noundef %0) #0 {
  %2 = alloca ptr, align 8
  %3 = alloca i64, align 8
  %4 = alloca i8, align 1
  store ptr %0, ptr %2, align 8, !tbaa !23
  call void @llvm.lifetime.start.p0(i64 8, ptr %3) #6
  store i64 1099511628211, ptr %3, align 8, !tbaa !25
  call void @llvm.lifetime.start.p0(i64 1, ptr %4) #6
  br label %5

5:                                                ; preds = %10, %1
  %6 = load ptr, ptr %2, align 8, !tbaa !23
  %7 = getelementptr inbounds nuw i8, ptr %6, i32 1
  store ptr %7, ptr %2, align 8, !tbaa !23
  %8 = load i8, ptr %6, align 1, !tbaa !27
  store i8 %8, ptr %4, align 1, !tbaa !27
  %9 = icmp ne i8 %8, 0
  br i1 %9, label %10, label %16

10:                                               ; preds = %5
  %11 = load i64, ptr %3, align 8, !tbaa !25
  %12 = load i8, ptr %4, align 1, !tbaa !27
  %13 = sext i8 %12 to i64
  %14 = xor i64 %11, %13
  %15 = mul i64 %14, -3750763034362895579
  store i64 %15, ptr %3, align 8, !tbaa !25
  br label %5

16:                                               ; preds = %5
  %17 = load i64, ptr %3, align 8, !tbaa !25
  call void @llvm.lifetime.end.p0(i64 1, ptr %4) #6
  call void @llvm.lifetime.end.p0(i64 8, ptr %3) #6
  ret i64 %17
}

; Function Attrs: nounwind uwtable
define i32 @SUNHashMap_Insert(ptr noundef %0, ptr noundef %1, ptr noundef %2) #0 {
  %4 = alloca i32, align 4
  %5 = alloca ptr, align 8
  %6 = alloca ptr, align 8
  %7 = alloca ptr, align 8
  %8 = alloca i32, align 4
  %9 = alloca i32, align 4
  %10 = alloca ptr, align 8
  %11 = alloca i32, align 4
  store ptr %0, ptr %5, align 8, !tbaa !10
  store ptr %1, ptr %6, align 8, !tbaa !23
  store ptr %2, ptr %7, align 8, !tbaa !19
  call void @llvm.lifetime.start.p0(i64 4, ptr %8) #6
  call void @llvm.lifetime.start.p0(i64 4, ptr %9) #6
  call void @llvm.lifetime.start.p0(i64 8, ptr %10) #6
  %12 = load ptr, ptr %5, align 8, !tbaa !10
  %13 = icmp eq ptr %12, null
  br i1 %13, label %20, label %14

14:                                               ; preds = %3
  %15 = load ptr, ptr %6, align 8, !tbaa !23
  %16 = icmp eq ptr %15, null
  br i1 %16, label %20, label %17

17:                                               ; preds = %14
  %18 = load ptr, ptr %7, align 8, !tbaa !19
  %19 = icmp eq ptr %18, null
  br i1 %19, label %20, label %21

20:                                               ; preds = %17, %14, %3
  store i32 -1, ptr %4, align 4
  store i32 1, ptr %11, align 4
  br label %77

21:                                               ; preds = %17
  %22 = load ptr, ptr %6, align 8, !tbaa !23
  %23 = call i64 @fnv1a_hash(ptr noundef %22)
  %24 = load ptr, ptr %5, align 8, !tbaa !10
  %25 = getelementptr inbounds nuw %struct.SUNHashMap_, ptr %24, i32 0, i32 1
  %26 = load i32, ptr %25, align 4, !tbaa !15
  %27 = sext i32 %26 to i64
  %28 = urem i64 %23, %27
  %29 = trunc i64 %28 to i32
  store i32 %29, ptr %8, align 4, !tbaa !3
  %30 = load ptr, ptr %5, align 8, !tbaa !10
  %31 = getelementptr inbounds nuw %struct.SUNHashMap_, ptr %30, i32 0, i32 2
  %32 = load ptr, ptr %31, align 8, !tbaa !16
  %33 = load i32, ptr %8, align 4, !tbaa !3
  %34 = sext i32 %33 to i64
  %35 = getelementptr inbounds ptr, ptr %32, i64 %34
  %36 = load ptr, ptr %35, align 8, !tbaa !17
  %37 = icmp ne ptr %36, null
  br i1 %37, label %38, label %54

38:                                               ; preds = %21
  %39 = load ptr, ptr %5, align 8, !tbaa !10
  %40 = load i32, ptr %8, align 4, !tbaa !3
  %41 = call i32 @SUNHashMap_Iterate(ptr noundef %39, i32 noundef %40, ptr noundef @sunHashMapLinearProbeInsert, ptr noundef null)
  store i32 %41, ptr %9, align 4, !tbaa !3
  %42 = load i32, ptr %9, align 4, !tbaa !3
  %43 = icmp slt i32 %42, 0
  br i1 %43, label %44, label %45

44:                                               ; preds = %38
  store i32 -1, ptr %4, align 4
  store i32 1, ptr %11, align 4
  br label %77

45:                                               ; preds = %38
  %46 = load i32, ptr %9, align 4, !tbaa !3
  %47 = load ptr, ptr %5, align 8, !tbaa !10
  %48 = getelementptr inbounds nuw %struct.SUNHashMap_, ptr %47, i32 0, i32 1
  %49 = load i32, ptr %48, align 4, !tbaa !15
  %50 = icmp eq i32 %46, %49
  br i1 %50, label %51, label %52

51:                                               ; preds = %45
  store i32 -2, ptr %4, align 4
  store i32 1, ptr %11, align 4
  br label %77

52:                                               ; preds = %45
  %53 = load i32, ptr %9, align 4, !tbaa !3
  store i32 %53, ptr %8, align 4, !tbaa !3
  br label %54

54:                                               ; preds = %52, %21
  %55 = call noalias ptr @malloc(i64 noundef 16) #7
  store ptr %55, ptr %10, align 8, !tbaa !17
  %56 = load ptr, ptr %10, align 8, !tbaa !17
  %57 = icmp eq ptr %56, null
  br i1 %57, label %58, label %59

58:                                               ; preds = %54
  store i32 -1, ptr %4, align 4
  store i32 1, ptr %11, align 4
  br label %77

59:                                               ; preds = %54
  %60 = load ptr, ptr %6, align 8, !tbaa !23
  %61 = load ptr, ptr %10, align 8, !tbaa !17
  %62 = getelementptr inbounds nuw %struct.SUNHashMapKeyValue_, ptr %61, i32 0, i32 0
  store ptr %60, ptr %62, align 8, !tbaa !24
  %63 = load ptr, ptr %7, align 8, !tbaa !19
  %64 = load ptr, ptr %10, align 8, !tbaa !17
  %65 = getelementptr inbounds nuw %struct.SUNHashMapKeyValue_, ptr %64, i32 0, i32 1
  store ptr %63, ptr %65, align 8, !tbaa !20
  %66 = load ptr, ptr %10, align 8, !tbaa !17
  %67 = load ptr, ptr %5, align 8, !tbaa !10
  %68 = getelementptr inbounds nuw %struct.SUNHashMap_, ptr %67, i32 0, i32 2
  %69 = load ptr, ptr %68, align 8, !tbaa !16
  %70 = load i32, ptr %8, align 4, !tbaa !3
  %71 = sext i32 %70 to i64
  %72 = getelementptr inbounds ptr, ptr %69, i64 %71
  store ptr %66, ptr %72, align 8, !tbaa !17
  %73 = load ptr, ptr %5, align 8, !tbaa !10
  %74 = getelementptr inbounds nuw %struct.SUNHashMap_, ptr %73, i32 0, i32 0
  %75 = load i32, ptr %74, align 8, !tbaa !12
  %76 = add nsw i32 %75, 1
  store i32 %76, ptr %74, align 8, !tbaa !12
  store i32 0, ptr %4, align 4
  store i32 1, ptr %11, align 4
  br label %77

77:                                               ; preds = %59, %58, %51, %44, %20
  call void @llvm.lifetime.end.p0(i64 8, ptr %10) #6
  call void @llvm.lifetime.end.p0(i64 4, ptr %9) #6
  call void @llvm.lifetime.end.p0(i64 4, ptr %8) #6
  %78 = load i32, ptr %4, align 4
  ret i32 %78
}