; Function Attrs: nofree nounwind uwtable
define range(i32 -2, 1) i32 @SUNHashMap_Insert(ptr noundef captures(address_is_null) %0, ptr noundef %1, ptr noundef %2) local_unnamed_addr #4 {
  %4 = icmp eq ptr %0, null
  %5 = icmp eq ptr %1, null
  %or.cond = or i1 %4, %5
  %6 = icmp eq ptr %2, null
  %or.cond3 = or i1 %or.cond, %6
  br i1 %or.cond3, label %46, label %7

7:                                                ; preds = %3
  %8 = load i8, ptr %1, align 1, !tbaa !19
  %.not5.i = icmp eq i8 %8, 0
  br i1 %.not5.i, label %fnv1a_hash.exit, label %.lr.ph.i

.lr.ph.i:                                         ; preds = %7, %.lr.ph.i
  %9 = phi i8 [ %14, %.lr.ph.i ], [ %8, %7 ]
  %.07.i = phi ptr [ %10, %.lr.ph.i ], [ %1, %7 ]
  %.036.i = phi i64 [ %13, %.lr.ph.i ], [ 1099511628211, %7 ]
  %10 = getelementptr inbounds nuw i8, ptr %.07.i, i64 1
  %11 = sext i8 %9 to i64
  %12 = xor i64 %.036.i, %11
  %13 = mul i64 %12, -3750763034362895579
  %14 = load i8, ptr %10, align 1, !tbaa !19
  %.not.i = icmp eq i8 %14, 0
  br i1 %.not.i, label %fnv1a_hash.exit, label %.lr.ph.i

fnv1a_hash.exit:                                  ; preds = %.lr.ph.i, %7
  %.03.lcssa.i = phi i64 [ 1099511628211, %7 ], [ %13, %.lr.ph.i ]
  %15 = getelementptr inbounds nuw i8, ptr %0, i64 4
  %16 = load i32, ptr %15, align 4, !tbaa !12
  %17 = sext i32 %16 to i64
  %18 = urem i64 %.03.lcssa.i, %17
  %19 = trunc i64 %18 to i32
  %20 = getelementptr inbounds nuw i8, ptr %0, i64 8
  %21 = load ptr, ptr %20, align 8, !tbaa !13
  %sext = shl i64 %18, 32
  %22 = ashr exact i64 %sext, 29
  %23 = getelementptr inbounds i8, ptr %21, i64 %22
  %24 = load ptr, ptr %23, align 8, !tbaa !14
  %.not = icmp eq ptr %24, null
  br i1 %.not, label %37, label %.preheader.i

.preheader.i:                                     ; preds = %fnv1a_hash.exit
  %25 = icmp sgt i32 %16, %19
  br i1 %25, label %.lr.ph.i31, label %SUNHashMap_Iterate.exit

.lr.ph.i31:                                       ; preds = %.preheader.i
  %26 = ashr exact i64 %sext, 32
  br label %29

27:                                               ; preds = %29
  %indvars.iv.next.i = add nsw i64 %indvars.iv.i, 1
  %28 = icmp slt i64 %indvars.iv.next.i, %17
  br i1 %28, label %29, label %SUNHashMap_Iterate.exit

29:                                               ; preds = %27, %.lr.ph.i31
  %indvars.iv.i = phi i64 [ %26, %.lr.ph.i31 ], [ %indvars.iv.next.i, %27 ]
  %30 = getelementptr inbounds ptr, ptr %21, i64 %indvars.iv.i
  %31 = load ptr, ptr %30, align 8, !tbaa !14
  %32 = icmp ne ptr %31, null
  %.not.i3234 = icmp eq i64 %indvars.iv.i, -1
  %.not.i32 = or i1 %.not.i3234, %32
  br i1 %.not.i32, label %27, label %SUNHashMap_Iterate.exit.loopexit.split.loop.exit

SUNHashMap_Iterate.exit.loopexit.split.loop.exit: ; preds = %29
  %33 = trunc nsw i64 %indvars.iv.i to i32
  br label %SUNHashMap_Iterate.exit

SUNHashMap_Iterate.exit:                          ; preds = %27, %SUNHashMap_Iterate.exit.loopexit.split.loop.exit, %.preheader.i
  %.0.i = phi i32 [ %16, %.preheader.i ], [ %33, %SUNHashMap_Iterate.exit.loopexit.split.loop.exit ], [ %16, %27 ]
  %34 = icmp slt i32 %.0.i, 0
  br i1 %34, label %46, label %35

35:                                               ; preds = %SUNHashMap_Iterate.exit
  %36 = icmp eq i32 %.0.i, %16
  br i1 %36, label %46, label %37

37:                                               ; preds = %35, %fnv1a_hash.exit
  %.025 = phi i32 [ %19, %fnv1a_hash.exit ], [ %.0.i, %35 ]
  %38 = tail call noalias dereferenceable_or_null(16) ptr @malloc(i64 noundef 16) #9
  %39 = icmp eq ptr %38, null
  br i1 %39, label %46, label %40

40:                                               ; preds = %37
  store ptr %1, ptr %38, align 8, !tbaa !20
  %41 = getelementptr inbounds nuw i8, ptr %38, i64 8
  store ptr %2, ptr %41, align 8, !tbaa !16
  %42 = sext i32 %.025 to i64
  %43 = getelementptr inbounds ptr, ptr %21, i64 %42
  store ptr %38, ptr %43, align 8, !tbaa !14
  %44 = load i32, ptr %0, align 8, !tbaa !8
  %45 = add nsw i32 %44, 1
  store i32 %45, ptr %0, align 8, !tbaa !8
  br label %46

46:                                               ; preds = %37, %35, %SUNHashMap_Iterate.exit, %3, %40
  %.0 = phi i32 [ 0, %40 ], [ -1, %3 ], [ -1, %SUNHashMap_Iterate.exit ], [ -2, %35 ], [ -1, %37 ]
  ret i32 %.0
}